target datalayout = "e-m:e-p270:32:32-p271:32:32-p272:64:64-i64:64-i128:128-f80:128-n8:16:32:64-S128"
target triple = "x86_64-pc-linux-gnu"

%struct.cert_store_t = type { %union.pthread_mutex_t, i8, %struct.cert_list_t, %struct.cert_list_t }
%union.pthread_mutex_t = type { %struct.__pthread_mutex_s }
%struct.__pthread_mutex_s = type { i32, i32, i32, i32, i32, i16, i16, %struct.__pthread_internal_list }
%struct.__pthread_internal_list = type { ptr, ptr }
%struct.cert_list_t = type { ptr, i64 }

@_cert_store = internal global %struct.cert_store_t zeroinitializer, align 8
@.str.6 = private unnamed_addr constant [32 x i8] c"Empty trusted certificate list\0A\00", align 1
@.str.7 = private unnamed_addr constant [44 x i8] c"Failed to reserve memory for trusted certs\0A\00", align 1
@.str.8 = private unnamed_addr constant [31 x i8] c"X509_dup failed at index: %zu\0A\00", align 1

; Function Attrs: nounwind uwtable
define void @cert_store_free_cert_list_int(ptr noundef %0) #0 {
  %2 = alloca ptr, align 8
  %3 = alloca i64, align 8
  store ptr %0, ptr %2, align 8
  %4 = load ptr, ptr %2, align 8
  %5 = icmp ne ptr %4, null
  br i1 %5, label %6, label %41

6:                                                ; preds = %1
  %7 = load ptr, ptr %2, align 8
  %8 = getelementptr inbounds %struct.cert_list_t, ptr %7, i32 0, i32 0
  %9 = load ptr, ptr %8, align 8
  %10 = icmp ne ptr %9, null
  br i1 %10, label %11, label %41

11:                                               ; preds = %6
  store i64 0, ptr %3, align 8
  br label %12

12:                                               ; preds = %30, %11
  %13 = load i64, ptr %3, align 8
  %14 = load ptr, ptr %2, align 8
  %15 = getelementptr inbounds %struct.cert_list_t, ptr %14, i32 0, i32 1
  %16 = load i64, ptr %15, align 8
  %17 = icmp ult i64 %13, %16
  br i1 %17, label %18, label %33

18:                                               ; preds = %12
  %19 = load ptr, ptr %2, align 8
  %20 = getelementptr inbounds %struct.cert_list_t, ptr %19, i32 0, i32 0
  %21 = load ptr, ptr %20, align 8
  %22 = load i64, ptr %3, align 8
  %23 = getelementptr inbounds ptr, ptr %21, i64 %22
  %24 = load ptr, ptr %23, align 8
  call void @X509_free(ptr noundef %24)
  %25 = load ptr, ptr %2, align 8
  %26 = getelementptr inbounds %struct.cert_list_t, ptr %25, i32 0, i32 0
  %27 = load ptr, ptr %26, align 8
  %28 = load i64, ptr %3, align 8
  %29 = getelementptr inbounds ptr, ptr %27, i64 %28
  store ptr null, ptr %29, align 8
  br label %30

30:                                               ; preds = %18
  %31 = load i64, ptr %3, align 8
  %32 = add i64 %31, 1
  store i64 %32, ptr %3, align 8
  br label %12

33:                                               ; preds = %12
  %34 = load ptr, ptr %2, align 8
  %35 = getelementptr inbounds %struct.cert_list_t, ptr %34, i32 0, i32 0
  %36 = load ptr, ptr %35, align 8
  call void @free(ptr noundef %36) #10
  %37 = load ptr, ptr %2, align 8
  %38 = getelementptr inbounds %struct.cert_list_t, ptr %37, i32 0, i32 0
  store ptr null, ptr %38, align 8
  %39 = load ptr, ptr %2, align 8
  %40 = getelementptr inbounds %struct.cert_list_t, ptr %39, i32 0, i32 1
  store i64 0, ptr %40, align 8
  br label %41

41:                                               ; preds = %33, %6, %1
  ret void
}

; Function Attrs: nounwind uwtable
define i32 @cert_store_set_trusted_int(ptr noundef %0, i64 noundef %1) #0 {
  %3 = alloca ptr, align 8
  %4 = alloca i64, align 8
  %5 = alloca i32, align 4
  %6 = alloca i64, align 8
  %7 = alloca i64, align 8
  %8 = alloca %struct.cert_list_t, align 8
  %9 = alloca i8, align 1
  store ptr %0, ptr %3, align 8
  store i64 %1, ptr %4, align 8
  store i32 8, ptr %5, align 4
  call void @llvm.memset.p0.i64(ptr align 8 %8, i8 0, i64 16, i1 false)
  br label %10

10:                                               ; preds = %2
  %11 = load ptr, ptr %3, align 8
  %12 = icmp eq ptr %11, null
  br i1 %12, label %16, label %13

13:                                               ; preds = %10
  %14 = load i64, ptr %4, align 8
  %15 = icmp eq i64 %14, 0
  br i1 %15, label %16, label %17

16:                                               ; preds = %13, %10
  call void (i32, ptr, ...) @mprintf(i32 noundef 5, ptr noundef @.str.6)
  br label %89

17:                                               ; preds = %13
  %18 = load i64, ptr %4, align 8
  %19 = call noalias ptr @calloc(i64 noundef %18, i64 noundef 8) #13
  %20 = getelementptr inbounds %struct.cert_list_t, ptr %8, i32 0, i32 0
  store ptr %19, ptr %20, align 8
  %21 = getelementptr inbounds %struct.cert_list_t, ptr %8, i32 0, i32 0
  %22 = load ptr, ptr %21, align 8
  %23 = icmp ne ptr %22, null
  br i1 %23, label %25, label %24

24:                                               ; preds = %17
  call void (i32, ptr, ...) @mprintf(i32 noundef 5, ptr noundef @.str.7)
  br label %89

25:                                               ; preds = %17
  store i64 0, ptr %6, align 8
  br label %26

26:                                               ; preds = %79, %25
  %27 = load i64, ptr %6, align 8
  %28 = load i64, ptr %4, align 8
  %29 = icmp ult i64 %27, %28
  br i1 %29, label %30, label %82

30:                                               ; preds = %26
  store i8 0, ptr %9, align 1
  store i64 0, ptr %7, align 8
  br label %31

31:                                               ; preds = %48, %30
  %32 = load i64, ptr %7, align 8
  %33 = load i64, ptr getelementptr inbounds (%struct.cert_store_t, ptr @_cert_store, i32 0, i32 2, i32 1), align 8
  %34 = icmp ult i64 %32, %33
  br i1 %34, label %35, label %51

35:                                               ; preds = %31
  %36 = load ptr, ptr %3, align 8
  %37 = load i64, ptr %6, align 8
  %38 = getelementptr inbounds ptr, ptr %36, i64 %37
  %39 = load ptr, ptr %38, align 8
  %40 = load ptr, ptr getelementptr inbounds (%struct.cert_store_t, ptr @_cert_store, i32 0, i32 2), align 8
  %41 = load i64, ptr %7, align 8
  %42 = getelementptr inbounds ptr, ptr %40, i64 %41
  %43 = load ptr, ptr %42, align 8
  %44 = call i32 @X509_cmp(ptr noundef %39, ptr noundef %43)
  %45 = icmp eq i32 %44, 0
  br i1 %45, label %46, label %47

46:                                               ; preds = %35
  store i8 1, ptr %9, align 1
  br label %47

47:                                               ; preds = %46, %35
  br label %48

48:                                               ; preds = %47
  %49 = load i64, ptr %7, align 8
  %50 = add i64 %49, 1
  store i64 %50, ptr %7, align 8
  br label %31

51:                                               ; preds = %31
  %52 = load i8, ptr %9, align 1
  %53 = trunc i8 %52 to i1
  br i1 %53, label %54, label %55

54:                                               ; preds = %51
  br label %79

55:                                               ; preds = %51
  %56 = load ptr, ptr %3, align 8
  %57 = load i64, ptr %6, align 8
  %58 = getelementptr inbounds ptr, ptr %56, i64 %57
  %59 = load ptr, ptr %58, align 8
  %60 = call ptr @X509_dup(ptr noundef %59)
  %61 = getelementptr inbounds %struct.cert_list_t, ptr %8, i32 0, i32 0
  %62 = load ptr, ptr %61, align 8
  %63 = getelementptr inbounds %struct.cert_list_t, ptr %8, i32 0, i32 1
  %64 = load i64, ptr %63, align 8
  %65 = getelementptr inbounds ptr, ptr %62, i64 %64
  store ptr %60, ptr %65, align 8
  %66 = getelementptr inbounds %struct.cert_list_t, ptr %8, i32 0, i32 0
  %67 = load ptr, ptr %66, align 8
  %68 = getelementptr inbounds %struct.cert_list_t, ptr %8, i32 0, i32 1
  %69 = load i64, ptr %68, align 8
  %70 = getelementptr inbounds ptr, ptr %67, i64 %69
  %71 = load ptr, ptr %70, align 8
  %72 = icmp ne ptr %71, null
  br i1 %72, label %75, label %73

73:                                               ; preds = %55
  %74 = load i64, ptr %6, align 8
  call void (i32, ptr, ...) @mprintf(i32 noundef 5, ptr noundef @.str.8, i64 noundef %74)
  br label %79

75:                                               ; preds = %55
  %76 = getelementptr inbounds %struct.cert_list_t, ptr %8, i32 0, i32 1
  %77 = load i64, ptr %76, align 8
  %78 = add i64 %77, 1
  store i64 %78, ptr %76, align 8
  br label %79

79:                                               ; preds = %75, %73, %54
  %80 = load i64, ptr %6, align 8
  %81 = add i64 %80, 1
  store i64 %81, ptr %6, align 8
  br label %26

82:                                               ; preds = %26
  call void @cert_store_free_cert_list_int(ptr noundef getelementptr inbounds (%struct.cert_store_t, ptr @_cert_store, i32 0, i32 3))
  %83 = getelementptr inbounds %struct.cert_list_t, ptr %8, i32 0, i32 0
  %84 = load ptr, ptr %83, align 8
  store ptr %84, ptr getelementptr inbounds (%struct.cert_store_t, ptr @_cert_store, i32 0, i32 3), align 8
  %85 = getelementptr inbounds %struct.cert_list_t, ptr %8, i32 0, i32 1
  %86 = load i64, ptr %85, align 8
  store i64 %86, ptr getelementptr inbounds (%struct.cert_store_t, ptr @_cert_store, i32 0, i32 3, i32 1), align 8
  %87 = getelementptr inbounds %struct.cert_list_t, ptr %8, i32 0, i32 0
  store ptr null, ptr %87, align 8
  %88 = getelementptr inbounds %struct.cert_list_t, ptr %8, i32 0, i32 1
  store i64 0, ptr %88, align 8
  store i32 0, ptr %5, align 4
  br label %89

89:                                               ; preds = %82, %24, %16
  %90 = load i32, ptr %5, align 4
  ret i32 %90
}