; Function Attrs: nounwind uwtable
define noundef i32 @cert_store_set_trusted_int(ptr noundef readonly %0, i64 noundef %1) local_unnamed_addr #1 {
  %3 = icmp eq ptr %0, null
  %4 = icmp eq i64 %1, 0
  %or.cond = or i1 %3, %4
  br i1 %or.cond, label %5, label %6

5:                                                ; preds = %2
  tail call void (i32, ptr, ...) @mprintf(i32 noundef 5, ptr noundef nonnull @.str.6) #15
  br label %41

6:                                                ; preds = %2
  %7 = tail call noalias ptr @calloc(i64 noundef %1, i64 noundef 8) #18
  %.not = icmp eq ptr %7, null
  br i1 %.not, label %8, label %.preheader

8:                                                ; preds = %6
  tail call void (i32, ptr, ...) @mprintf(i32 noundef 5, ptr noundef nonnull @.str.7) #15
  br label %41

.preheader:                                       ; preds = %6, %28
  %.sroa.7.033 = phi i64 [ %.sroa.7.1, %28 ], [ 0, %6 ]
  %.02332 = phi i64 [ %29, %28 ], [ 0, %6 ]
  %9 = load i64, ptr getelementptr inbounds (%struct.cert_store_t, ptr @_cert_store, i64 0, i32 2, i32 1), align 8
  %.not37 = icmp eq i64 %9, 0
  br i1 %.not37, label %.critedge, label %.lr.ph

.lr.ph:                                           ; preds = %.preheader
  %10 = getelementptr inbounds ptr, ptr %0, i64 %.02332
  br label %11

11:                                               ; preds = %.lr.ph, %11
  %.031 = phi i1 [ false, %.lr.ph ], [ %spec.select, %11 ]
  %.02230 = phi i64 [ 0, %.lr.ph ], [ %18, %11 ]
  %12 = load ptr, ptr %10, align 8
  %13 = load ptr, ptr getelementptr inbounds (%struct.cert_store_t, ptr @_cert_store, i64 0, i32 2), align 8
  %14 = getelementptr inbounds ptr, ptr %13, i64 %.02230
  %15 = load ptr, ptr %14, align 8
  %16 = tail call i32 @X509_cmp(ptr noundef %12, ptr noundef %15) #15
  %17 = icmp eq i32 %16, 0
  %spec.select = select i1 %17, i1 true, i1 %.031
  %18 = add nuw i64 %.02230, 1
  %19 = load i64, ptr getelementptr inbounds (%struct.cert_store_t, ptr @_cert_store, i64 0, i32 2, i32 1), align 8
  %20 = icmp ult i64 %18, %19
  br i1 %20, label %11, label %._crit_edge

._crit_edge:                                      ; preds = %11
  br i1 %spec.select, label %28, label %.critedge

.critedge:                                        ; preds = %.preheader, %._crit_edge
  %21 = getelementptr inbounds ptr, ptr %0, i64 %.02332
  %22 = load ptr, ptr %21, align 8
  %23 = tail call ptr @X509_dup(ptr noundef %22) #15
  %24 = getelementptr inbounds ptr, ptr %7, i64 %.sroa.7.033
  store ptr %23, ptr %24, align 8
  %.not28 = icmp eq ptr %23, null
  br i1 %.not28, label %25, label %26

25:                                               ; preds = %.critedge
  tail call void (i32, ptr, ...) @mprintf(i32 noundef 5, ptr noundef nonnull @.str.8, i64 noundef %.02332) #15
  br label %28

26:                                               ; preds = %.critedge
  %27 = add i64 %.sroa.7.033, 1
  br label %28

28:                                               ; preds = %._crit_edge, %26, %25
  %.sroa.7.1 = phi i64 [ %.sroa.7.033, %._crit_edge ], [ %27, %26 ], [ %.sroa.7.033, %25 ]
  %29 = add nuw i64 %.02332, 1
  %exitcond.not = icmp eq i64 %29, %1
  br i1 %exitcond.not, label %._crit_edge34, label %.preheader

._crit_edge34:                                    ; preds = %28
  %30 = load ptr, ptr getelementptr inbounds (%struct.cert_store_t, ptr @_cert_store, i64 0, i32 3), align 8
  %.not12.i = icmp eq ptr %30, null
  br i1 %.not12.i, label %cert_store_free_cert_list_int.exit, label %.preheader.i

.preheader.i:                                     ; preds = %._crit_edge34
  %31 = load i64, ptr getelementptr inbounds (%struct.cert_store_t, ptr @_cert_store, i64 0, i32 3, i32 1), align 8
  %.not14.i = icmp eq i64 %31, 0
  br i1 %.not14.i, label %._crit_edge.i, label %.lr.ph.i

.lr.ph.i:                                         ; preds = %.preheader.i, %.lr.ph.i
  %.013.i = phi i64 [ %37, %.lr.ph.i ], [ 0, %.preheader.i ]
  %32 = load ptr, ptr getelementptr inbounds (%struct.cert_store_t, ptr @_cert_store, i64 0, i32 3), align 8
  %33 = getelementptr inbounds ptr, ptr %32, i64 %.013.i
  %34 = load ptr, ptr %33, align 8
  tail call void @X509_free(ptr noundef %34) #15
  %35 = load ptr, ptr getelementptr inbounds (%struct.cert_store_t, ptr @_cert_store, i64 0, i32 3), align 8
  %36 = getelementptr inbounds ptr, ptr %35, i64 %.013.i
  store ptr null, ptr %36, align 8
  %37 = add nuw i64 %.013.i, 1
  %38 = load i64, ptr getelementptr inbounds (%struct.cert_store_t, ptr @_cert_store, i64 0, i32 3, i32 1), align 8
  %39 = icmp ult i64 %37, %38
  br i1 %39, label %.lr.ph.i, label %._crit_edge.loopexit.i

._crit_edge.loopexit.i:                           ; preds = %.lr.ph.i
  %.pre.i = load ptr, ptr getelementptr inbounds (%struct.cert_store_t, ptr @_cert_store, i64 0, i32 3), align 8
  br label %._crit_edge.i

._crit_edge.i:                                    ; preds = %._crit_edge.loopexit.i, %.preheader.i
  %40 = phi ptr [ %.pre.i, %._crit_edge.loopexit.i ], [ %30, %.preheader.i ]
  tail call void @free(ptr noundef %40) #15
  br label %cert_store_free_cert_list_int.exit

cert_store_free_cert_list_int.exit:               ; preds = %._crit_edge34, %._crit_edge.i
  store ptr %7, ptr getelementptr inbounds (%struct.cert_store_t, ptr @_cert_store, i64 0, i32 3), align 8
  store i64 %.sroa.7.1, ptr getelementptr inbounds (%struct.cert_store_t, ptr @_cert_store, i64 0, i32 3, i32 1), align 8
  br label %41

41:                                               ; preds = %cert_store_free_cert_list_int.exit, %8, %5
  %.024 = phi i32 [ 8, %5 ], [ 0, %cert_store_free_cert_list_int.exit ], [ 8, %8 ]
  ret i32 %.024
}